target datalayout = "e-m:e-p270:32:32-p271:32:32-p272:64:64-i64:64-i128:128-f80:128-n8:16:32:64-S128"
target triple = "x86_64-pc-linux-gnu"

%"class.pxrInternal_v0_24__pxrReserved__::GfDualQuath" = type { %"class.pxrInternal_v0_24__pxrReserved__::GfQuath", %"class.pxrInternal_v0_24__pxrReserved__::GfQuath" }
%"class.pxrInternal_v0_24__pxrReserved__::GfQuath" = type { %"class.pxrInternal_v0_24__pxrReserved__::GfVec3h", %"class.pxrInternal_v0_24__pxrReserved__::pxr_half::half" }
%"class.pxrInternal_v0_24__pxrReserved__::GfVec3h" = type { [3 x %"class.pxrInternal_v0_24__pxrReserved__::pxr_half::half"] }
%"class.pxrInternal_v0_24__pxrReserved__::pxr_half::half" = type { i16 }

; Function Attrs: mustprogress uwtable
define linkonce_odr i48 @_ZN32pxrInternal_v0_24__pxrReserved__plERKNS_7GfVec3hES2_(ptr noundef nonnull align 2 dereferenceable(6) %0, ptr noundef nonnull align 2 dereferenceable(6) %1) #0 comdat {
  %3 = alloca %"class.pxrInternal_v0_24__pxrReserved__::GfVec3h", align 2
  %4 = alloca ptr, align 8
  %5 = alloca ptr, align 8
  %6 = alloca %"class.pxrInternal_v0_24__pxrReserved__::GfVec3h", align 2
  %7 = alloca i48, align 8
  store ptr %0, ptr %4, align 8
  store ptr %1, ptr %5, align 8
  %8 = load ptr, ptr %5, align 8
  %9 = load ptr, ptr %4, align 8
  call void @llvm.memcpy.p0.p0.i64(ptr align 2 %6, ptr align 2 %9, i64 6, i1 false)
  %10 = call noundef nonnull align 2 dereferenceable(6) ptr @_ZN32pxrInternal_v0_24__pxrReserved__7GfVec3hpLERKS0_(ptr noundef nonnull align 2 dereferenceable(6) %6, ptr noundef nonnull align 2 dereferenceable(6) %8)
  call void @llvm.memcpy.p0.p0.i64(ptr align 2 %3, ptr align 2 %10, i64 6, i1 false)
  %11 = getelementptr inbounds nuw %"class.pxrInternal_v0_24__pxrReserved__::GfVec3h", ptr %3, i32 0, i32 0
  call void @llvm.memcpy.p0.p0.i64(ptr align 8 %7, ptr align 2 %11, i64 6, i1 false)
  %12 = load i48, ptr %7, align 8
  ret i48 %12
}

; Function Attrs: mustprogress nounwind uwtable
define linkonce_odr noundef nonnull align 2 dereferenceable(8) ptr @_ZNK32pxrInternal_v0_24__pxrReserved__11GfDualQuath7GetRealEv(ptr noundef nonnull align 2 dereferenceable(16) %0) #2 comdat align 2 {
  %2 = alloca ptr, align 8
  store ptr %0, ptr %2, align 8
  %3 = load ptr, ptr %2, align 8
  %4 = getelementptr inbounds nuw %"class.pxrInternal_v0_24__pxrReserved__::GfDualQuath", ptr %3, i32 0, i32 0
  ret ptr %4
}

; Function Attrs: mustprogress uwtable
define i48 @_ZNK32pxrInternal_v0_24__pxrReserved__11GfDualQuath9TransformERKNS_7GfVec3hE(ptr noundef nonnull align 2 dereferenceable(16) %0, ptr noundef nonnull align 2 dereferenceable(6) %1) #0 align 2 {
  %3 = alloca %"class.pxrInternal_v0_24__pxrReserved__::GfVec3h", align 2
  %4 = alloca ptr, align 8
  %5 = alloca ptr, align 8
  %6 = alloca %"class.pxrInternal_v0_24__pxrReserved__::GfVec3h", align 2
  %7 = alloca %"class.pxrInternal_v0_24__pxrReserved__::GfVec3h", align 2
  %8 = alloca i48, align 8
  store ptr %0, ptr %4, align 8
  store ptr %1, ptr %5, align 8
  %9 = load ptr, ptr %4, align 8
  %10 = call noundef nonnull align 2 dereferenceable(8) ptr @_ZNK32pxrInternal_v0_24__pxrReserved__11GfDualQuath7GetRealEv(ptr noundef nonnull align 2 dereferenceable(16) %9)
  %11 = load ptr, ptr %5, align 8
  %12 = call i48 @_ZNK32pxrInternal_v0_24__pxrReserved__7GfQuath9TransformERKNS_7GfVec3hE(ptr noundef nonnull align 2 dereferenceable(8) %10, ptr noundef nonnull align 2 dereferenceable(6) %11)
  %13 = getelementptr inbounds nuw %"class.pxrInternal_v0_24__pxrReserved__::GfVec3h", ptr %6, i32 0, i32 0
  store i48 %12, ptr %13, align 2
  %14 = call i48 @_ZNK32pxrInternal_v0_24__pxrReserved__11GfDualQuath14GetTranslationEv(ptr noundef nonnull align 2 dereferenceable(16) %9)
  %15 = getelementptr inbounds nuw %"class.pxrInternal_v0_24__pxrReserved__::GfVec3h", ptr %7, i32 0, i32 0
  store i48 %14, ptr %15, align 2
  %16 = call i48 @_ZN32pxrInternal_v0_24__pxrReserved__plERKNS_7GfVec3hES2_(ptr noundef nonnull align 2 dereferenceable(6) %6, ptr noundef nonnull align 2 dereferenceable(6) %7)
  %17 = getelementptr inbounds nuw %"class.pxrInternal_v0_24__pxrReserved__::GfVec3h", ptr %3, i32 0, i32 0
  store i48 %16, ptr %17, align 2
  %18 = getelementptr inbounds nuw %"class.pxrInternal_v0_24__pxrReserved__::GfVec3h", ptr %3, i32 0, i32 0
  call void @llvm.memcpy.p0.p0.i64(ptr align 8 %8, ptr align 2 %18, i64 6, i1 false)
  %19 = load i48, ptr %8, align 8
  ret i48 %19
}