; Function Attrs: mustprogress uwtable
define i48 @_ZNK32pxrInternal_v0_24__pxrReserved__11GfDualQuath9TransformERKNS_7GfVec3hE(ptr noundef nonnull align 2 dereferenceable(16) %0, ptr noundef nonnull align 2 dereferenceable(6) %1) local_unnamed_addr #0 align 2 {
  %3 = alloca %"class.pxrInternal_v0_24__pxrReserved__::GfVec3h", align 8
  %4 = alloca %"class.pxrInternal_v0_24__pxrReserved__::GfVec3h", align 8
  %5 = tail call i48 @_ZNK32pxrInternal_v0_24__pxrReserved__7GfQuath9TransformERKNS_7GfVec3hE(ptr noundef nonnull align 2 dereferenceable(8) %0, ptr noundef nonnull align 2 dereferenceable(6) %1)
  %6 = tail call i48 @_ZNK32pxrInternal_v0_24__pxrReserved__11GfDualQuath14GetTranslationEv(ptr noundef nonnull align 2 dereferenceable(16) %0)
  store i48 %6, ptr %4, align 8
  call void @llvm.lifetime.start.p0(i64 6, ptr nonnull %3)
  store i48 %5, ptr %3, align 8
  %7 = call noundef nonnull align 2 dereferenceable(6) ptr @_ZN32pxrInternal_v0_24__pxrReserved__7GfVec3hpLERKS0_(ptr noundef nonnull align 2 dereferenceable(6) %3, ptr noundef nonnull align 2 dereferenceable(6) %4)
  %.sroa.0.0.copyload.i = load i48, ptr %7, align 2
  call void @llvm.lifetime.end.p0(i64 6, ptr nonnull %3)
  ret i48 %.sroa.0.0.copyload.i
}